; Function Attrs: nounwind uwtable
define dso_local void @tbm_free(ptr noundef %0) local_unnamed_addr #0 {
  %2 = getelementptr inbounds nuw i8, ptr %0, i64 24
  %3 = load ptr, ptr %2, align 8
  %.not = icmp eq ptr %3, null
  br i1 %.not, label %16, label %4

4:                                                ; preds = %1
  %5 = getelementptr i8, ptr %3, i64 40
  %.val.i = load ptr, ptr %5, align 8
  %6 = getelementptr inbounds nuw i8, ptr %.val.i, i64 152
  %7 = load ptr, ptr %6, align 8
  %8 = icmp eq ptr %7, null
  br i1 %8, label %9, label %12

9:                                                ; preds = %4
  %10 = getelementptr inbounds nuw i8, ptr %3, i64 24
  %11 = load ptr, ptr %10, align 8
  tail call void @pfree(ptr noundef %11) #14
  br label %pagetable_destroy.exit

12:                                               ; preds = %4
  %13 = getelementptr inbounds nuw i8, ptr %.val.i, i64 128
  %14 = load i64, ptr %13, align 8
  %.not.i.i = icmp eq i64 %14, 0
  br i1 %.not.i.i, label %pagetable_destroy.exit, label %15

15:                                               ; preds = %12
  tail call void @dsa_free(ptr noundef nonnull %7, i64 noundef %14) #14
  store i64 0, ptr %13, align 8
  br label %pagetable_destroy.exit

pagetable_destroy.exit:                           ; preds = %9, %12, %15
  tail call void @pfree(ptr noundef nonnull %3) #14
  br label %16

16:                                               ; preds = %pagetable_destroy.exit, %1
  %17 = getelementptr inbounds nuw i8, ptr %0, i64 104
  %18 = load ptr, ptr %17, align 8
  %.not9 = icmp eq ptr %18, null
  br i1 %.not9, label %20, label %19

19:                                               ; preds = %16
  tail call void @pfree(ptr noundef nonnull %18) #14
  br label %20

20:                                               ; preds = %19, %16
  %21 = getelementptr inbounds nuw i8, ptr %0, i64 112
  %22 = load ptr, ptr %21, align 8
  %.not10 = icmp eq ptr %22, null
  br i1 %.not10, label %24, label %23

23:                                               ; preds = %20
  tail call void @pfree(ptr noundef nonnull %22) #14
  br label %24

24:                                               ; preds = %23, %20
  tail call void @pfree(ptr noundef nonnull %0) #14
  ret void
}